; ModuleID = '40/2624.c'
source_filename = "40/2624.c"
target datalayout = "e-m:e-p270:32:32-p271:32:32-p272:64:64-i64:64-f80:128-n8:16:32:64-S128"
target triple = "x86_64-pc-linux-gnu"

@.str = private unnamed_addr constant [4 x i8] c"%lf\00", align 1
@.str.1 = private unnamed_addr constant [5 x i8] c"%.4f\00", align 1
@.str.2 = private unnamed_addr constant [14 x i8] c"Invalid input\00", align 1

; Function Attrs: noinline nounwind uwtable
define dso_local double @main() #0 {
  %1 = alloca double, align 8
  %2 = alloca double, align 8
  %3 = alloca double, align 8
  %4 = alloca double, align 8
  %5 = alloca double, align 8
  %6 = alloca double, align 8
  %7 = alloca double, align 8
  %8 = alloca double, align 8
  %9 = alloca double, align 8
  %10 = call i32 (i8*, ...) @__isoc99_scanf(i8* getelementptr inbounds ([4 x i8], [4 x i8]* @.str, i64 0, i64 0), double* %1)
  %11 = call i32 (i8*, ...) @__isoc99_scanf(i8* getelementptr inbounds ([4 x i8], [4 x i8]* @.str, i64 0, i64 0), double* %2)
  %12 = call i32 (i8*, ...) @__isoc99_scanf(i8* getelementptr inbounds ([4 x i8], [4 x i8]* @.str, i64 0, i64 0), double* %3)
  %13 = call i32 (i8*, ...) @__isoc99_scanf(i8* getelementptr inbounds ([4 x i8], [4 x i8]* @.str, i64 0, i64 0), double* %4)
  %14 = call i32 (i8*, ...) @__isoc99_scanf(i8* getelementptr inbounds ([4 x i8], [4 x i8]* @.str, i64 0, i64 0), double* %5)
  %15 = load double, double* %1, align 8
  %16 = load double, double* %2, align 8
  %17 = fadd double %15, %16
  %18 = load double, double* %3, align 8
  %19 = fadd double %17, %18
  %20 = load double, double* %4, align 8
  %21 = fadd double %19, %20
  %22 = fdiv double %21, 2.000000e+00
  store double %22, double* %7, align 8
  %23 = load double, double* %5, align 8
  %24 = fdiv double %23, 2.000000e+00
  %25 = fdiv double %24, 1.800000e+02
  %26 = fmul double %25, 3.140000e+00
  store double %26, double* %9, align 8
  %27 = load double, double* %7, align 8
  %28 = load double, double* %1, align 8
  %29 = fsub double %27, %28
  %30 = load double, double* %7, align 8
  %31 = load double, double* %2, align 8
  %32 = fsub double %30, %31
  %33 = fmul double %29, %32
  %34 = load double, double* %7, align 8
  %35 = load double, double* %3, align 8
  %36 = fsub double %34, %35
  %37 = fmul double %33, %36
  %38 = load double, double* %7, align 8
  %39 = load double, double* %4, align 8
  %40 = fsub double %38, %39
  %41 = fmul double %37, %40
  %42 = load double, double* %1, align 8
  %43 = load double, double* %2, align 8
  %44 = fmul double %42, %43
  %45 = load double, double* %3, align 8
  %46 = fmul double %44, %45
  %47 = load double, double* %4, align 8
  %48 = fmul double %46, %47
  %49 = load double, double* %9, align 8
  %50 = call double @cos(double %49) #3
  %51 = fmul double %48, %50
  %52 = load double, double* %9, align 8
  %53 = call double @cos(double %52) #3
  %54 = fmul double %51, %53
  %55 = fsub double %41, %54
  store double %55, double* %6, align 8
  %56 = load double, double* %6, align 8
  %57 = fcmp ogt double %56, 0.000000e+00
  br i1 %57, label %58, label %91

58:                                               ; preds = %0
  %59 = load double, double* %7, align 8
  %60 = load double, double* %1, align 8
  %61 = fsub double %59, %60
  %62 = load double, double* %7, align 8
  %63 = load double, double* %2, align 8
  %64 = fsub double %62, %63
  %65 = fmul double %61, %64
  %66 = load double, double* %7, align 8
  %67 = load double, double* %3, align 8
  %68 = fsub double %66, %67
  %69 = fmul double %65, %68
  %70 = load double, double* %7, align 8
  %71 = load double, double* %4, align 8
  %72 = fsub double %70, %71
  %73 = fmul double %69, %72
  %74 = load double, double* %1, align 8
  %75 = load double, double* %2, align 8
  %76 = fmul double %74, %75
  %77 = load double, double* %3, align 8
  %78 = fmul double %76, %77
  %79 = load double, double* %4, align 8
  %80 = fmul double %78, %79
  %81 = load double, double* %9, align 8
  %82 = call double @cos(double %81) #3
  %83 = fmul double %80, %82
  %84 = load double, double* %9, align 8
  %85 = call double @cos(double %84) #3
  %86 = fmul double %83, %85
  %87 = fsub double %73, %86
  %88 = call double @sqrt(double %87) #3
  store double %88, double* %8, align 8
  %89 = load double, double* %8, align 8
  %90 = call i32 (i8*, ...) @printf(i8* getelementptr inbounds ([5 x i8], [5 x i8]* @.str.1, i64 0, i64 0), double %89)
  br label %93

91:                                               ; preds = %0
  %92 = call i32 (i8*, ...) @printf(i8* getelementptr inbounds ([14 x i8], [14 x i8]* @.str.2, i64 0, i64 0))
  br label %93

93:                                               ; preds = %91, %58
  ret double 0.000000e+00
}

declare dso_local i32 @__isoc99_scanf(i8*, ...) #1

; Function Attrs: nounwind
declare dso_local double @cos(double) #2

; Function Attrs: nounwind
declare dso_local double @sqrt(double) #2

declare dso_local i32 @printf(i8*, ...) #1


!llvm.module.flags = !{!0}
!llvm.ident = !{!1}

!0 = !{i32 1, !"wchar_size", i32 4}
!1 = !{!"clang version 10.0.0-4ubuntu1 "}
